; ModuleID = '28/1942.c'
source_filename = "28/1942.c"
target datalayout = "e-m:e-p270:32:32-p271:32:32-p272:64:64-i64:64-f80:128-n8:16:32:64-S128"
target triple = "x86_64-pc-linux-gnu"

@.str = private unnamed_addr constant [3 x i8] c"%d\00", align 1
@.str.1 = private unnamed_addr constant [4 x i8] c",%d\00", align 1

; Function Attrs: noinline nounwind uwtable
define dso_local i32 @main() #0 {
  %1 = alloca i32, align 4
  %2 = alloca [5000 x i8], align 16
  %3 = alloca i32, align 4
  %4 = alloca i32, align 4
  %5 = alloca i32, align 4
  %6 = alloca i32, align 4
  %7 = alloca i32, align 4
  %8 = alloca i32, align 4
  store i32 0, i32* %1, align 4
  %9 = getelementptr inbounds [5000 x i8], [5000 x i8]* %2, i64 0, i64 0
  %10 = call i32 (i8*, ...) bitcast (i32 (...)* @gets to i32 (i8*, ...)*)(i8* %9)
  %11 = getelementptr inbounds [5000 x i8], [5000 x i8]* %2, i64 0, i64 0
  %12 = call i64 @strlen(i8* %11) #3
  %13 = trunc i64 %12 to i32
  store i32 %13, i32* %7, align 4
  store i32 0, i32* %3, align 4
  br label %14

14:                                               ; preds = %31, %0
  %15 = load i32, i32* %3, align 4
  %16 = load i32, i32* %7, align 4
  %17 = icmp slt i32 %15, %16
  br i1 %17, label %18, label %34

18:                                               ; preds = %14
  %19 = load i32, i32* %3, align 4
  %20 = sext i32 %19 to i64
  %21 = getelementptr inbounds [5000 x i8], [5000 x i8]* %2, i64 0, i64 %20
  %22 = load i8, i8* %21, align 1
  %23 = sext i8 %22 to i32
  store i32 %23, i32* %5, align 4
  %24 = load i32, i32* %5, align 4
  %25 = icmp eq i32 %24, 32
  br i1 %25, label %26, label %30

26:                                               ; preds = %18
  %27 = load i32, i32* %3, align 4
  %28 = call i32 (i8*, ...) @printf(i8* getelementptr inbounds ([3 x i8], [3 x i8]* @.str, i64 0, i64 0), i32 %27)
  %29 = load i32, i32* %3, align 4
  store i32 %29, i32* %6, align 4
  br label %34

30:                                               ; preds = %18
  br label %31

31:                                               ; preds = %30
  %32 = load i32, i32* %3, align 4
  %33 = add nsw i32 %32, 1
  store i32 %33, i32* %3, align 4
  br label %14

34:                                               ; preds = %26, %14
  %35 = load i32, i32* %3, align 4
  %36 = load i32, i32* %7, align 4
  %37 = icmp eq i32 %35, %36
  br i1 %37, label %38, label %41

38:                                               ; preds = %34
  %39 = load i32, i32* %3, align 4
  %40 = call i32 (i8*, ...) @printf(i8* getelementptr inbounds ([3 x i8], [3 x i8]* @.str, i64 0, i64 0), i32 %39)
  br label %95

41:                                               ; preds = %34
  %42 = load i32, i32* %3, align 4
  %43 = add nsw i32 %42, 1
  store i32 %43, i32* %4, align 4
  br label %44

44:                                               ; preds = %91, %41
  %45 = load i32, i32* %4, align 4
  %46 = load i32, i32* %7, align 4
  %47 = icmp slt i32 %45, %46
  br i1 %47, label %48, label %94

48:                                               ; preds = %44
  %49 = load i32, i32* %4, align 4
  %50 = sext i32 %49 to i64
  %51 = getelementptr inbounds [5000 x i8], [5000 x i8]* %2, i64 0, i64 %50
  %52 = load i8, i8* %51, align 1
  %53 = sext i8 %52 to i32
  store i32 %53, i32* %5, align 4
  %54 = load i32, i32* %4, align 4
  %55 = sub nsw i32 %54, 1
  %56 = sext i32 %55 to i64
  %57 = getelementptr inbounds [5000 x i8], [5000 x i8]* %2, i64 0, i64 %56
  %58 = load i8, i8* %57, align 1
  %59 = sext i8 %58 to i32
  store i32 %59, i32* %8, align 4
  %60 = load i32, i32* %5, align 4
  %61 = icmp eq i32 %60, 32
  br i1 %61, label %62, label %72

62:                                               ; preds = %48
  %63 = load i32, i32* %8, align 4
  %64 = icmp ne i32 %63, 32
  br i1 %64, label %65, label %72

65:                                               ; preds = %62
  %66 = load i32, i32* %4, align 4
  %67 = load i32, i32* %6, align 4
  %68 = sub nsw i32 %66, %67
  %69 = sub nsw i32 %68, 1
  %70 = call i32 (i8*, ...) @printf(i8* getelementptr inbounds ([4 x i8], [4 x i8]* @.str.1, i64 0, i64 0), i32 %69)
  %71 = load i32, i32* %4, align 4
  store i32 %71, i32* %6, align 4
  br label %72

72:                                               ; preds = %65, %62, %48
  %73 = load i32, i32* %5, align 4
  %74 = icmp eq i32 %73, 32
  br i1 %74, label %75, label %80

75:                                               ; preds = %72
  %76 = load i32, i32* %8, align 4
  %77 = icmp eq i32 %76, 32
  br i1 %77, label %78, label %80

78:                                               ; preds = %75
  %79 = load i32, i32* %4, align 4
  store i32 %79, i32* %6, align 4
  br label %80

80:                                               ; preds = %78, %75, %72
  %81 = load i32, i32* %4, align 4
  %82 = load i32, i32* %7, align 4
  %83 = sub nsw i32 %82, 1
  %84 = icmp eq i32 %81, %83
  br i1 %84, label %85, label %90

85:                                               ; preds = %80
  %86 = load i32, i32* %4, align 4
  %87 = load i32, i32* %6, align 4
  %88 = sub nsw i32 %86, %87
  %89 = call i32 (i8*, ...) @printf(i8* getelementptr inbounds ([4 x i8], [4 x i8]* @.str.1, i64 0, i64 0), i32 %88)
  br label %90

90:                                               ; preds = %85, %80
  br label %91

91:                                               ; preds = %90
  %92 = load i32, i32* %4, align 4
  %93 = add nsw i32 %92, 1
  store i32 %93, i32* %4, align 4
  br label %44

94:                                               ; preds = %44
  br label %95

95:                                               ; preds = %94, %38
  ret i32 0
}

declare dso_local i32 @gets(...) #1

; Function Attrs: nounwind readonly
declare dso_local i64 @strlen(i8*) #2

declare dso_local i32 @printf(i8*, ...) #1


!llvm.module.flags = !{!0}
!llvm.ident = !{!1}

!0 = !{i32 1, !"wchar_size", i32 4}
!1 = !{!"clang version 10.0.0-4ubuntu1 "}
